target datalayout = "e-m:e-p270:32:32-p271:32:32-p272:64:64-i64:64-i128:128-f80:128-n8:16:32:64-S128"
target triple = "x86_64-pc-linux-gnu"

%"struct.mitsuba::ThreadNotifier" = type { i8 }
%"class.std::__1::basic_string" = type { %"class.std::__1::__compressed_pair.10" }
%"class.std::__1::__compressed_pair.10" = type { %"struct.std::__1::__compressed_pair_elem.11" }
%"struct.std::__1::__compressed_pair_elem.11" = type { %"struct.std::__1::basic_string<char>::__rep" }
%"struct.std::__1::basic_string<char>::__rep" = type { %union.anon }
%union.anon = type { %"struct.std::__1::basic_string<char>::__long" }
%"struct.std::__1::basic_string<char>::__long" = type { %struct.anon.12, i64, ptr }
%struct.anon.12 = type { i64 }
%"class.mitsuba::Thread" = type { %"class.mitsuba::Object.base", %"class.std::__1::unique_ptr" }
%"class.mitsuba::Object.base" = type <{ ptr, %"struct.std::__1::atomic.2" }>
%"struct.std::__1::atomic.2" = type { %"struct.std::__1::__atomic_base.3" }
%"struct.std::__1::__atomic_base.3" = type { %"struct.std::__1::__atomic_base.4" }
%"struct.std::__1::__atomic_base.4" = type { %"struct.std::__1::__cxx_atomic_impl.5" }
%"struct.std::__1::__cxx_atomic_impl.5" = type { %"struct.std::__1::__cxx_atomic_base_impl.6" }
%"struct.std::__1::__cxx_atomic_base_impl.6" = type { i32 }
%"class.std::__1::unique_ptr" = type { %"class.std::__1::__compressed_pair.7" }
%"class.std::__1::__compressed_pair.7" = type { %"struct.std::__1::__compressed_pair_elem.8" }
%"struct.std::__1::__compressed_pair_elem.8" = type { ptr }
%"class.mitsuba::Object" = type <{ ptr, %"struct.std::__1::atomic.2", [4 x i8] }>
%"struct.mitsuba::Thread::ThreadPrivate" = type { %"class.std::__1::thread", i64, %"class.std::__1::basic_string", i8, i8, i8, i32, i32, %"class.mitsuba::ref", %"class.mitsuba::ref.17", %"class.mitsuba::ref.18" }
%"class.std::__1::thread" = type { i64 }
%"class.mitsuba::ref" = type { ptr }
%"class.mitsuba::ref.17" = type { ptr }
%"class.mitsuba::ref.18" = type { ptr }
%"class.mitsuba::ScopedSetThreadEnvironment" = type { %"class.mitsuba::ref", %"class.mitsuba::ref.18" }

@_ZN7mitsubaL8notifierE = internal thread_local global %"struct.mitsuba::ThreadNotifier" zeroinitializer, align 1
@_ZN7mitsubaL4selfE = internal thread_local global ptr null, align 8
@_ZTHN7mitsubaL8notifierE = internal alias void (), ptr @__tls_init

; Function Attrs: mustprogress nounwind uwtable
define linkonce_odr hidden noundef i32 @_ZNSt3__122__cxx_atomic_fetch_addB8ne190000IiEET_PNS_22__cxx_atomic_base_implIS1_EES1_NS_12memory_orderE(ptr noundef %0, i32 noundef %1, i32 noundef %2) #1 comdat {
  %4 = alloca ptr, align 8
  %5 = alloca i32, align 4
  %6 = alloca i32, align 4
  %7 = alloca i32, align 4
  %8 = alloca i32, align 4
  store ptr %0, ptr %4, align 8
  store i32 %1, ptr %5, align 4
  store i32 %2, ptr %6, align 4
  %9 = load ptr, ptr %4, align 8
  %10 = getelementptr inbounds %"struct.std::__1::__cxx_atomic_base_impl.6", ptr %9, i32 0, i32 0
  %11 = load i32, ptr %6, align 4
  %12 = load i32, ptr %5, align 4
  store i32 %12, ptr %7, align 4
  switch i32 %11, label %13 [
    i32 1, label %16
    i32 2, label %16
    i32 3, label %19
    i32 4, label %22
    i32 5, label %25
  ]

13:                                               ; preds = %3
  %14 = load i32, ptr %7, align 4
  %15 = atomicrmw add ptr %10, i32 %14 monotonic, align 4
  store i32 %15, ptr %8, align 4
  br label %28

16:                                               ; preds = %3, %3
  %17 = load i32, ptr %7, align 4
  %18 = atomicrmw add ptr %10, i32 %17 acquire, align 4
  store i32 %18, ptr %8, align 4
  br label %28

19:                                               ; preds = %3
  %20 = load i32, ptr %7, align 4
  %21 = atomicrmw add ptr %10, i32 %20 release, align 4
  store i32 %21, ptr %8, align 4
  br label %28

22:                                               ; preds = %3
  %23 = load i32, ptr %7, align 4
  %24 = atomicrmw add ptr %10, i32 %23 acq_rel, align 4
  store i32 %24, ptr %8, align 4
  br label %28

25:                                               ; preds = %3
  %26 = load i32, ptr %7, align 4
  %27 = atomicrmw add ptr %10, i32 %26 seq_cst, align 4
  store i32 %27, ptr %8, align 4
  br label %28

28:                                               ; preds = %25, %22, %19, %16, %13
  %29 = load i32, ptr %8, align 4
  ret i32 %29
}

; Function Attrs: mustprogress nounwind uwtable
define linkonce_odr hidden noundef i32 @_ZNSt3__113__atomic_baseIiLb1EE9fetch_addB8ne190000EiNS_12memory_orderE(ptr noundef nonnull align 4 dereferenceable(4) %0, i32 noundef %1, i32 noundef %2) #1 comdat align 2 {
  %4 = alloca ptr, align 8
  %5 = alloca i32, align 4
  %6 = alloca i32, align 4
  store ptr %0, ptr %4, align 8
  store i32 %1, ptr %5, align 4
  store i32 %2, ptr %6, align 4
  %7 = load ptr, ptr %4, align 8
  %8 = getelementptr inbounds %"struct.std::__1::__atomic_base.4", ptr %7, i32 0, i32 0
  %9 = load i32, ptr %5, align 4
  %10 = load i32, ptr %6, align 4
  %11 = call noundef i32 @_ZNSt3__122__cxx_atomic_fetch_addB8ne190000IiEET_PNS_22__cxx_atomic_base_implIS1_EES1_NS_12memory_orderE(ptr noundef %8, i32 noundef %9, i32 noundef %10) #2
  ret i32 %11
}

; Function Attrs: mustprogress nounwind uwtable
define linkonce_odr hidden noundef i32 @_ZNSt3__113__atomic_baseIiLb1EEppB8ne190000Ev(ptr noundef nonnull align 4 dereferenceable(4) %0) #1 comdat align 2 {
  %2 = alloca ptr, align 8
  store ptr %0, ptr %2, align 8
  %3 = load ptr, ptr %2, align 8
  %4 = call noundef i32 @_ZNSt3__113__atomic_baseIiLb1EE9fetch_addB8ne190000EiNS_12memory_orderE(ptr noundef nonnull align 4 dereferenceable(4) %3, i32 noundef 1, i32 noundef 5) #2
  %5 = add nsw i32 %4, 1
  ret i32 %5
}

; Function Attrs: mustprogress nounwind uwtable
define linkonce_odr hidden noundef nonnull align 8 dereferenceable(8) ptr @_ZNKSt3__122__compressed_pair_elemIPN7mitsuba6Thread13ThreadPrivateELi0ELb0EE5__getB8ne190000Ev(ptr noundef nonnull align 8 dereferenceable(8) %0) #1 comdat align 2 {
  %2 = alloca ptr, align 8
  store ptr %0, ptr %2, align 8
  %3 = load ptr, ptr %2, align 8
  %4 = getelementptr inbounds %"struct.std::__1::__compressed_pair_elem.8", ptr %3, i32 0, i32 0
  ret ptr %4
}

; Function Attrs: mustprogress nounwind uwtable
define linkonce_odr void @_ZNK7mitsuba6Object7inc_refEv(ptr noundef nonnull align 8 dereferenceable(12) %0) #1 comdat align 2 {
  %2 = alloca ptr, align 8
  store ptr %0, ptr %2, align 8
  %3 = load ptr, ptr %2, align 8
  %4 = getelementptr inbounds %"class.mitsuba::Object", ptr %3, i32 0, i32 1
  %5 = call noundef i32 @_ZNSt3__113__atomic_baseIiLb1EEppB8ne190000Ev(ptr noundef nonnull align 4 dereferenceable(4) %4) #2
  ret void
}

; Function Attrs: mustprogress nounwind uwtable
define linkonce_odr hidden noundef nonnull align 8 dereferenceable(8) ptr @_ZNKSt3__117__compressed_pairIPN7mitsuba6Thread13ThreadPrivateENS_14default_deleteIS3_EEE5firstB8ne190000Ev(ptr noundef nonnull align 8 dereferenceable(8) %0) #1 comdat align 2 {
  %2 = alloca ptr, align 8
  store ptr %0, ptr %2, align 8
  %3 = load ptr, ptr %2, align 8
  %4 = call noundef nonnull align 8 dereferenceable(8) ptr @_ZNKSt3__122__compressed_pair_elemIPN7mitsuba6Thread13ThreadPrivateELi0ELb0EE5__getB8ne190000Ev(ptr noundef nonnull align 8 dereferenceable(8) %3) #2
  ret ptr %4
}

; Function Attrs: mustprogress nounwind uwtable
define linkonce_odr hidden noundef nonnull align 8 dereferenceable(8) ptr @_ZN7mitsuba3refINS_12FileResolverEEaSIS1_EERS2_PS1_(ptr noundef nonnull align 8 dereferenceable(8) %0, ptr noundef %1) #1 comdat align 2 {
  %3 = alloca ptr, align 8
  %4 = alloca ptr, align 8
  store ptr %0, ptr %3, align 8
  store ptr %1, ptr %4, align 8
  %5 = load ptr, ptr %3, align 8
  %6 = getelementptr inbounds %"class.mitsuba::ref.18", ptr %5, i32 0, i32 0
  %7 = load ptr, ptr %6, align 8
  %8 = load ptr, ptr %4, align 8
  %9 = icmp ne ptr %7, %8
  br i1 %9, label %10, label %25

10:                                               ; preds = %2
  %11 = load ptr, ptr %4, align 8
  %12 = icmp ne ptr %11, null
  br i1 %12, label %13, label %15

13:                                               ; preds = %10
  %14 = load ptr, ptr %4, align 8
  call void @_ZNK7mitsuba6Object7inc_refEv(ptr noundef nonnull align 8 dereferenceable(12) %14)
  br label %15

15:                                               ; preds = %13, %10
  %16 = getelementptr inbounds %"class.mitsuba::ref.18", ptr %5, i32 0, i32 0
  %17 = load ptr, ptr %16, align 8
  %18 = icmp ne ptr %17, null
  br i1 %18, label %19, label %22

19:                                               ; preds = %15
  %20 = getelementptr inbounds %"class.mitsuba::ref.18", ptr %5, i32 0, i32 0
  %21 = load ptr, ptr %20, align 8
  call void @_ZNK7mitsuba6Object7dec_refEb(ptr noundef nonnull align 8 dereferenceable(12) %21, i1 noundef zeroext true) #2
  br label %22

22:                                               ; preds = %19, %15
  %23 = load ptr, ptr %4, align 8
  %24 = getelementptr inbounds %"class.mitsuba::ref.18", ptr %5, i32 0, i32 0
  store ptr %23, ptr %24, align 8
  br label %25

25:                                               ; preds = %22, %2
  ret ptr %5
}

; Function Attrs: mustprogress nounwind uwtable
define linkonce_odr hidden noundef nonnull align 8 dereferenceable(8) ptr @_ZN7mitsuba3refINS_6LoggerEEaSIS1_EERS2_PS1_(ptr noundef nonnull align 8 dereferenceable(8) %0, ptr noundef %1) #1 comdat align 2 {
  %3 = alloca ptr, align 8
  %4 = alloca ptr, align 8
  store ptr %0, ptr %3, align 8
  store ptr %1, ptr %4, align 8
  %5 = load ptr, ptr %3, align 8
  %6 = getelementptr inbounds %"class.mitsuba::ref", ptr %5, i32 0, i32 0
  %7 = load ptr, ptr %6, align 8
  %8 = load ptr, ptr %4, align 8
  %9 = icmp ne ptr %7, %8
  br i1 %9, label %10, label %25

10:                                               ; preds = %2
  %11 = load ptr, ptr %4, align 8
  %12 = icmp ne ptr %11, null
  br i1 %12, label %13, label %15

13:                                               ; preds = %10
  %14 = load ptr, ptr %4, align 8
  call void @_ZNK7mitsuba6Object7inc_refEv(ptr noundef nonnull align 8 dereferenceable(12) %14)
  br label %15

15:                                               ; preds = %13, %10
  %16 = getelementptr inbounds %"class.mitsuba::ref", ptr %5, i32 0, i32 0
  %17 = load ptr, ptr %16, align 8
  %18 = icmp ne ptr %17, null
  br i1 %18, label %19, label %22

19:                                               ; preds = %15
  %20 = getelementptr inbounds %"class.mitsuba::ref", ptr %5, i32 0, i32 0
  %21 = load ptr, ptr %20, align 8
  call void @_ZNK7mitsuba6Object7dec_refEb(ptr noundef nonnull align 8 dereferenceable(12) %21, i1 noundef zeroext true) #2
  br label %22

22:                                               ; preds = %19, %15
  %23 = load ptr, ptr %4, align 8
  %24 = getelementptr inbounds %"class.mitsuba::ref", ptr %5, i32 0, i32 0
  store ptr %23, ptr %24, align 8
  br label %25

25:                                               ; preds = %22, %2
  ret ptr %5
}

; Function Attrs: mustprogress nounwind uwtable
define linkonce_odr hidden noundef ptr @_ZNKSt3__110unique_ptrIN7mitsuba6Thread13ThreadPrivateENS_14default_deleteIS3_EEEptB8ne190000Ev(ptr noundef nonnull align 8 dereferenceable(8) %0) #1 comdat align 2 {
  %2 = alloca ptr, align 8
  store ptr %0, ptr %2, align 8
  %3 = load ptr, ptr %2, align 8
  %4 = getelementptr inbounds %"class.std::__1::unique_ptr", ptr %3, i32 0, i32 0
  %5 = call noundef nonnull align 8 dereferenceable(8) ptr @_ZNKSt3__117__compressed_pairIPN7mitsuba6Thread13ThreadPrivateENS_14default_deleteIS3_EEE5firstB8ne190000Ev(ptr noundef nonnull align 8 dereferenceable(8) %4) #2
  %6 = load ptr, ptr %5, align 8
  ret ptr %6
}

; Function Attrs: mustprogress nounwind uwtable
define linkonce_odr hidden void @_ZN7mitsuba14ThreadNotifier18ensure_initializedEv(ptr noundef nonnull align 1 dereferenceable(1) %0) #1 comdat align 2 {
  %2 = alloca ptr, align 8
  store ptr %0, ptr %2, align 8
  ret void
}

; Function Attrs: uwtable
define internal noundef ptr @_ZTWN7mitsubaL8notifierE() #10 {
  call void @_ZTHN7mitsubaL8notifierE()
  %1 = call align 1 ptr @llvm.threadlocal.address.p0(ptr align 1 @_ZN7mitsubaL8notifierE)
  ret ptr %1
}

; Function Attrs: mustprogress nounwind uwtable
define linkonce_odr hidden void @_ZN7mitsuba3refINS_6LoggerEED2Ev(ptr noundef nonnull align 8 dereferenceable(8) %0) unnamed_addr #1 comdat align 2 {
  %2 = alloca ptr, align 8
  store ptr %0, ptr %2, align 8
  %3 = load ptr, ptr %2, align 8
  %4 = getelementptr inbounds %"class.mitsuba::ref", ptr %3, i32 0, i32 0
  %5 = load ptr, ptr %4, align 8
  %6 = icmp ne ptr %5, null
  br i1 %6, label %7, label %10

7:                                                ; preds = %1
  %8 = getelementptr inbounds %"class.mitsuba::ref", ptr %3, i32 0, i32 0
  %9 = load ptr, ptr %8, align 8
  call void @_ZNK7mitsuba6Object7dec_refEb(ptr noundef nonnull align 8 dereferenceable(12) %9, i1 noundef zeroext true) #2
  br label %10

10:                                               ; preds = %7, %1
  ret void
}

; Function Attrs: mustprogress nounwind uwtable
define linkonce_odr hidden void @_ZN7mitsuba3refINS_12FileResolverEED2Ev(ptr noundef nonnull align 8 dereferenceable(8) %0) unnamed_addr #1 comdat align 2 {
  %2 = alloca ptr, align 8
  store ptr %0, ptr %2, align 8
  %3 = load ptr, ptr %2, align 8
  %4 = getelementptr inbounds %"class.mitsuba::ref.18", ptr %3, i32 0, i32 0
  %5 = load ptr, ptr %4, align 8
  %6 = icmp ne ptr %5, null
  br i1 %6, label %7, label %10

7:                                                ; preds = %1
  %8 = getelementptr inbounds %"class.mitsuba::ref.18", ptr %3, i32 0, i32 0
  %9 = load ptr, ptr %8, align 8
  call void @_ZNK7mitsuba6Object7dec_refEb(ptr noundef nonnull align 8 dereferenceable(12) %9, i1 noundef zeroext true) #2
  br label %10

10:                                               ; preds = %7, %1
  ret void
}

; Function Attrs: mustprogress nounwind uwtable
define void @_ZN7mitsuba6Thread17set_file_resolverEPNS_12FileResolverE(ptr noundef nonnull align 8 dereferenceable(24) %0, ptr noundef %1) #1 align 2 {
  %3 = alloca ptr, align 8
  %4 = alloca ptr, align 8
  store ptr %0, ptr %3, align 8
  store ptr %1, ptr %4, align 8
  %5 = load ptr, ptr %3, align 8
  %6 = load ptr, ptr %4, align 8
  %7 = getelementptr inbounds %"class.mitsuba::Thread", ptr %5, i32 0, i32 1
  %8 = call noundef ptr @_ZNKSt3__110unique_ptrIN7mitsuba6Thread13ThreadPrivateENS_14default_deleteIS3_EEEptB8ne190000Ev(ptr noundef nonnull align 8 dereferenceable(8) %7) #2
  %9 = getelementptr inbounds %"struct.mitsuba::Thread::ThreadPrivate", ptr %8, i32 0, i32 10
  %10 = call noundef nonnull align 8 dereferenceable(8) ptr @_ZN7mitsuba3refINS_12FileResolverEEaSIS1_EERS2_PS1_(ptr noundef nonnull align 8 dereferenceable(8) %9, ptr noundef %6) #2
  ret void
}

; Function Attrs: mustprogress nounwind uwtable
define linkonce_odr hidden noundef ptr @_ZN7mitsuba3refINS_12FileResolverEEcvPS1_Ev(ptr noundef nonnull align 8 dereferenceable(8) %0) #1 comdat align 2 {
  %2 = alloca ptr, align 8
  store ptr %0, ptr %2, align 8
  %3 = load ptr, ptr %2, align 8
  %4 = getelementptr inbounds %"class.mitsuba::ref.18", ptr %3, i32 0, i32 0
  %5 = load ptr, ptr %4, align 8
  ret ptr %5
}

; Function Attrs: mustprogress nounwind uwtable
define void @_ZN7mitsuba6Thread10set_loggerEPNS_6LoggerE(ptr noundef nonnull align 8 dereferenceable(24) %0, ptr noundef %1) #1 align 2 {
  %3 = alloca ptr, align 8
  %4 = alloca ptr, align 8
  store ptr %0, ptr %3, align 8
  store ptr %1, ptr %4, align 8
  %5 = load ptr, ptr %3, align 8
  %6 = load ptr, ptr %4, align 8
  %7 = getelementptr inbounds %"class.mitsuba::Thread", ptr %5, i32 0, i32 1
  %8 = call noundef ptr @_ZNKSt3__110unique_ptrIN7mitsuba6Thread13ThreadPrivateENS_14default_deleteIS3_EEEptB8ne190000Ev(ptr noundef nonnull align 8 dereferenceable(8) %7) #2
  %9 = getelementptr inbounds %"struct.mitsuba::Thread::ThreadPrivate", ptr %8, i32 0, i32 8
  %10 = call noundef nonnull align 8 dereferenceable(8) ptr @_ZN7mitsuba3refINS_6LoggerEEaSIS1_EERS2_PS1_(ptr noundef nonnull align 8 dereferenceable(8) %9, ptr noundef %6) #2
  ret void
}

; Function Attrs: mustprogress nounwind uwtable
define linkonce_odr hidden noundef ptr @_ZN7mitsuba3refINS_6LoggerEEcvPS1_Ev(ptr noundef nonnull align 8 dereferenceable(8) %0) #1 comdat align 2 {
  %2 = alloca ptr, align 8
  store ptr %0, ptr %2, align 8
  %3 = load ptr, ptr %2, align 8
  %4 = getelementptr inbounds %"class.mitsuba::ref", ptr %3, i32 0, i32 0
  %5 = load ptr, ptr %4, align 8
  ret ptr %5
}

; Function Attrs: mustprogress uwtable
define noundef ptr @_ZN7mitsuba6Thread6threadEv() #3 align 2 {
  %1 = alloca ptr, align 8
  %2 = call ptr @_ZTWN7mitsubaL8notifierE()
  call void @_ZN7mitsuba14ThreadNotifier18ensure_initializedEv(ptr noundef nonnull align 1 dereferenceable(1) %2)
  %3 = call align 8 ptr @llvm.threadlocal.address.p0(ptr align 8 @_ZN7mitsubaL4selfE)
  %4 = load ptr, ptr %3, align 8
  store ptr %4, ptr %1, align 8
  %5 = load ptr, ptr %1, align 8
  ret ptr %5
}

; Function Attrs: mustprogress nounwind uwtable
define void @_ZN7mitsuba26ScopedSetThreadEnvironmentD2Ev(ptr noundef nonnull align 8 dereferenceable(16) %0) unnamed_addr #1 align 2 personality ptr @__gxx_personality_v0 {
  %2 = alloca ptr, align 8
  %3 = alloca ptr, align 8
  store ptr %0, ptr %2, align 8
  %4 = load ptr, ptr %2, align 8
  %5 = invoke noundef ptr @_ZN7mitsuba6Thread6threadEv()
          to label %6 unwind label %17

6:                                                ; preds = %1
  store ptr %5, ptr %3, align 8
  %7 = load ptr, ptr %3, align 8
  %8 = getelementptr inbounds %"class.mitsuba::ScopedSetThreadEnvironment", ptr %4, i32 0, i32 0
  %9 = invoke noundef ptr @_ZN7mitsuba3refINS_6LoggerEEcvPS1_Ev(ptr noundef nonnull align 8 dereferenceable(8) %8)
          to label %10 unwind label %17

10:                                               ; preds = %6
  call void @_ZN7mitsuba6Thread10set_loggerEPNS_6LoggerE(ptr noundef nonnull align 8 dereferenceable(24) %7, ptr noundef %9)
  %11 = load ptr, ptr %3, align 8
  %12 = getelementptr inbounds %"class.mitsuba::ScopedSetThreadEnvironment", ptr %4, i32 0, i32 1
  %13 = invoke noundef ptr @_ZN7mitsuba3refINS_12FileResolverEEcvPS1_Ev(ptr noundef nonnull align 8 dereferenceable(8) %12)
          to label %14 unwind label %17

14:                                               ; preds = %10
  call void @_ZN7mitsuba6Thread17set_file_resolverEPNS_12FileResolverE(ptr noundef nonnull align 8 dereferenceable(24) %11, ptr noundef %13)
  %15 = getelementptr inbounds %"class.mitsuba::ScopedSetThreadEnvironment", ptr %4, i32 0, i32 1
  call void @_ZN7mitsuba3refINS_12FileResolverEED2Ev(ptr noundef nonnull align 8 dereferenceable(8) %15) #2
  %16 = getelementptr inbounds %"class.mitsuba::ScopedSetThreadEnvironment", ptr %4, i32 0, i32 0
  call void @_ZN7mitsuba3refINS_6LoggerEED2Ev(ptr noundef nonnull align 8 dereferenceable(8) %16) #2
  ret void

17:                                               ; preds = %10, %6, %1
  %18 = landingpad { ptr, i32 }
          catch ptr null
  %19 = extractvalue { ptr, i32 } %18, 0
  call void @__clang_call_terminate(ptr %19) #22
  unreachable
}