; Function Attrs: nounwind uwtable
define void @_ZN7mitsuba26ScopedSetThreadEnvironmentD2Ev(ptr nocapture noundef nonnull readonly align 8 dereferenceable(16) %0) unnamed_addr #8 align 2 personality ptr @__gxx_personality_v0 {
  %.b.i.i.i = load i1, ptr @__tls_guard, align 1
  br i1 %.b.i.i.i, label %3, label %2, !prof !4

2:                                                ; preds = %1
  store i1 true, ptr @__tls_guard, align 1
  invoke fastcc void @__cxx_global_var_init.1()
          to label %3 unwind label %36

3:                                                ; preds = %1, %2
  %4 = tail call align 8 ptr @llvm.threadlocal.address.p0(ptr align 8 @_ZN7mitsubaL4selfE)
  %5 = load ptr, ptr %4, align 8
  %6 = load ptr, ptr %0, align 8
  %7 = getelementptr inbounds i8, ptr %5, i64 16
  %8 = load ptr, ptr %7, align 8
  %9 = getelementptr inbounds i8, ptr %8, i64 56
  %10 = load ptr, ptr %9, align 8
  %.not.i.i = icmp eq ptr %10, %6
  br i1 %.not.i.i, label %_ZN7mitsuba6Thread10set_loggerEPNS_6LoggerE.exit, label %11

11:                                               ; preds = %3
  %.not6.i.i = icmp eq ptr %6, null
  br i1 %.not6.i.i, label %15, label %12

12:                                               ; preds = %11
  %13 = getelementptr inbounds i8, ptr %6, i64 8
  %14 = atomicrmw add ptr %13, i32 1 seq_cst, align 4
  %.pr.i.i = load ptr, ptr %9, align 8
  br label %15

15:                                               ; preds = %12, %11
  %16 = phi ptr [ %.pr.i.i, %12 ], [ %10, %11 ]
  %.not7.i.i = icmp eq ptr %16, null
  br i1 %.not7.i.i, label %18, label %17

17:                                               ; preds = %15
  tail call void @_ZNK7mitsuba6Object7dec_refEb(ptr noundef nonnull align 8 dereferenceable(12) %16, i1 noundef zeroext true) #3
  br label %18

18:                                               ; preds = %17, %15
  store ptr %6, ptr %9, align 8
  %.pre = load ptr, ptr %7, align 8
  br label %_ZN7mitsuba6Thread10set_loggerEPNS_6LoggerE.exit

_ZN7mitsuba6Thread10set_loggerEPNS_6LoggerE.exit: ; preds = %3, %18
  %19 = phi ptr [ %8, %3 ], [ %.pre, %18 ]
  %20 = getelementptr inbounds i8, ptr %0, i64 8
  %21 = load ptr, ptr %20, align 8
  %22 = getelementptr inbounds i8, ptr %19, i64 72
  %23 = load ptr, ptr %22, align 8
  %.not.i.i3 = icmp eq ptr %23, %21
  br i1 %.not.i.i3, label %_ZN7mitsuba6Thread17set_file_resolverEPNS_12FileResolverE.exit, label %24

24:                                               ; preds = %_ZN7mitsuba6Thread10set_loggerEPNS_6LoggerE.exit
  %.not6.i.i4 = icmp eq ptr %21, null
  br i1 %.not6.i.i4, label %28, label %25

25:                                               ; preds = %24
  %26 = getelementptr inbounds i8, ptr %21, i64 8
  %27 = atomicrmw add ptr %26, i32 1 seq_cst, align 4
  %.pr.i.i5 = load ptr, ptr %22, align 8
  br label %28

28:                                               ; preds = %25, %24
  %29 = phi ptr [ %.pr.i.i5, %25 ], [ %23, %24 ]
  %.not7.i.i6 = icmp eq ptr %29, null
  br i1 %.not7.i.i6, label %31, label %30

30:                                               ; preds = %28
  tail call void @_ZNK7mitsuba6Object7dec_refEb(ptr noundef nonnull align 8 dereferenceable(12) %29, i1 noundef zeroext true) #3
  br label %31

31:                                               ; preds = %30, %28
  store ptr %21, ptr %22, align 8
  %.pr = load ptr, ptr %20, align 8
  br label %_ZN7mitsuba6Thread17set_file_resolverEPNS_12FileResolverE.exit

_ZN7mitsuba6Thread17set_file_resolverEPNS_12FileResolverE.exit: ; preds = %_ZN7mitsuba6Thread10set_loggerEPNS_6LoggerE.exit, %31
  %32 = phi ptr [ %21, %_ZN7mitsuba6Thread10set_loggerEPNS_6LoggerE.exit ], [ %.pr, %31 ]
  %.not.i = icmp eq ptr %32, null
  br i1 %.not.i, label %_ZN7mitsuba3refINS_12FileResolverEED2Ev.exit, label %33

33:                                               ; preds = %_ZN7mitsuba6Thread17set_file_resolverEPNS_12FileResolverE.exit
  tail call void @_ZNK7mitsuba6Object7dec_refEb(ptr noundef nonnull align 8 dereferenceable(12) %32, i1 noundef zeroext true) #3
  br label %_ZN7mitsuba3refINS_12FileResolverEED2Ev.exit

_ZN7mitsuba3refINS_12FileResolverEED2Ev.exit:     ; preds = %_ZN7mitsuba6Thread17set_file_resolverEPNS_12FileResolverE.exit, %33
  %34 = load ptr, ptr %0, align 8
  %.not.i7 = icmp eq ptr %34, null
  br i1 %.not.i7, label %_ZN7mitsuba3refINS_6LoggerEED2Ev.exit, label %35

35:                                               ; preds = %_ZN7mitsuba3refINS_12FileResolverEED2Ev.exit
  tail call void @_ZNK7mitsuba6Object7dec_refEb(ptr noundef nonnull align 8 dereferenceable(12) %34, i1 noundef zeroext true) #3
  br label %_ZN7mitsuba3refINS_6LoggerEED2Ev.exit

_ZN7mitsuba3refINS_6LoggerEED2Ev.exit:            ; preds = %_ZN7mitsuba3refINS_12FileResolverEED2Ev.exit, %35
  ret void

36:                                               ; preds = %2
  %37 = landingpad { ptr, i32 }
          catch ptr null
  %38 = extractvalue { ptr, i32 } %37, 0
  tail call void @__clang_call_terminate(ptr %38) #33
  unreachable
}